target datalayout = "e-m:e-p270:32:32-p271:32:32-p272:64:64-i64:64-i128:128-f80:128-n8:16:32:64-S128"
target triple = "x86_64-pc-linux-gnu"

%"class.g2o::DataQueue" = type { %"class.std::map" }
%"class.std::map" = type { %"class.std::_Rb_tree" }
%"class.std::_Rb_tree" = type { %"struct.std::_Rb_tree<double, std::pair<const double, g2o::RobotData *>, std::_Select1st<std::pair<const double, g2o::RobotData *>>, std::less<double>>::_Rb_tree_impl" }
%"struct.std::_Rb_tree<double, std::pair<const double, g2o::RobotData *>, std::_Select1st<std::pair<const double, g2o::RobotData *>>, std::less<double>>::_Rb_tree_impl" = type { [8 x i8], %"struct.std::_Rb_tree_header" }
%"struct.std::_Rb_tree_header" = type { %"struct.std::_Rb_tree_node_base", i64 }
%"struct.std::_Rb_tree_node_base" = type { i32, ptr, ptr, ptr }
%"class.g2o::RobotData" = type { %"class.g2o::HyperGraph::Data", double, double, %"class.std::__cxx11::basic_string", %"class.std::__cxx11::basic_string" }
%"class.g2o::HyperGraph::Data" = type { %"struct.g2o::HyperGraph::HyperGraphElement", ptr, ptr }
%"struct.g2o::HyperGraph::HyperGraphElement" = type { ptr }
%"class.std::__cxx11::basic_string" = type { %"struct.std::__cxx11::basic_string<char>::_Alloc_hider", i64, %union.anon }
%"struct.std::__cxx11::basic_string<char>::_Alloc_hider" = type { ptr }
%union.anon = type { i64, [8 x i8] }

; Function Attrs: mustprogress nounwind uwtable
define linkonce_odr noundef double @_ZNK3g2o9RobotData9timestampEv(ptr noundef nonnull align 8 dereferenceable(104) %0) #4 comdat align 2 {
  %2 = alloca ptr, align 8
  store ptr %0, ptr %2, align 8
  %3 = load ptr, ptr %2, align 8
  %4 = getelementptr inbounds nuw %"class.g2o::RobotData", ptr %3, i32 0, i32 1
  %5 = load double, ptr %4, align 8
  ret double %5
}

; Function Attrs: mustprogress uwtable
define void @_ZN3g2o9DataQueue3addEPNS_9RobotDataE(ptr noundef nonnull align 8 dereferenceable(48) %0, ptr noundef %1) #5 align 2 {
  %3 = alloca ptr, align 8
  %4 = alloca ptr, align 8
  %5 = alloca double, align 8
  store ptr %0, ptr %3, align 8
  store ptr %1, ptr %4, align 8
  %6 = load ptr, ptr %3, align 8
  %7 = load ptr, ptr %4, align 8
  %8 = getelementptr inbounds nuw %"class.g2o::DataQueue", ptr %6, i32 0, i32 0
  %9 = load ptr, ptr %4, align 8
  %10 = call noundef double @_ZNK3g2o9RobotData9timestampEv(ptr noundef nonnull align 8 dereferenceable(104) %9)
  store double %10, ptr %5, align 8
  %11 = call noundef nonnull align 8 dereferenceable(8) ptr @_ZNSt3mapIdPN3g2o9RobotDataESt4lessIdESaISt4pairIKdS2_EEEixEOd(ptr noundef nonnull align 8 dereferenceable(48) %8, ptr noundef nonnull align 8 dereferenceable(8) %5)
  store ptr %7, ptr %11, align 8
  ret void
}