; Function Attrs: mustprogress uwtable
define void @_ZN3g2o9DataQueue3addEPNS_9RobotDataE(ptr noundef nonnull align 8 dereferenceable(48) %0, ptr noundef %1) local_unnamed_addr #5 align 2 {
  %3 = alloca double, align 8
  %4 = getelementptr inbounds nuw i8, ptr %1, i64 24
  %5 = load double, ptr %4, align 8
  store double %5, ptr %3, align 8
  %6 = call noundef nonnull align 8 dereferenceable(8) ptr @_ZNSt3mapIdPN3g2o9RobotDataESt4lessIdESaISt4pairIKdS2_EEEixEOd(ptr noundef nonnull align 8 dereferenceable(48) %0, ptr noundef nonnull align 8 dereferenceable(8) %3)
  store ptr %1, ptr %6, align 8
  ret void
}